target datalayout = "e-m:e-p270:32:32-p271:32:32-p272:64:64-i64:64-i128:128-f80:128-n8:16:32:64-S128"
target triple = "x86_64-pc-linux-gnu"

%struct.Cof_Man_t_ = type { ptr, ptr, ptr, i32, i32, i32, ptr, i32, ptr, i32 }
%struct.Cof_Obj_t_ = type { i32, i32, i32, i32, i32, i32, [0 x %struct.Cof_Fan_t_] }
%struct.Cof_Fan_t_ = type { i32 }
%struct.Vec_Ptr_t_ = type { i32, i32, ptr }
%struct.timespec = type { i64, i64 }

@.str.21 = private unnamed_addr constant [5 x i8] c"%s =\00", align 1
@.str.22 = private unnamed_addr constant [25 x i8] c"Memory for logic network\00", align 1
@.str.23 = private unnamed_addr constant [12 x i8] c"%10.3f MB  \00", align 1
@.str.24 = private unnamed_addr constant [5 x i8] c"Time\00", align 1
@.str.25 = private unnamed_addr constant [11 x i8] c"%9.2f sec\0A\00", align 1

; Function Attrs: inlinehint nounwind uwtable
define internal i32 @Cof_ObjSize(ptr noundef %0) #3 {
  %2 = alloca ptr, align 8
  store ptr %0, ptr %2, align 8, !tbaa !42
  %3 = load ptr, ptr %2, align 8, !tbaa !42
  %4 = load i32, ptr %3, align 4
  %5 = lshr i32 %4, 4
  %6 = and i32 %5, 15
  %7 = zext i32 %6 to i64
  %8 = add i64 6, %7
  %9 = load ptr, ptr %2, align 8, !tbaa !42
  %10 = load i32, ptr %9, align 4
  %11 = lshr i32 %10, 8
  %12 = zext i32 %11 to i64
  %13 = add i64 %8, %12
  %14 = trunc i64 %13 to i32
  ret i32 %14
}

; Function Attrs: inlinehint nounwind uwtable
define internal ptr @Cof_ManObj(ptr noundef %0, i32 noundef %1) #3 {
  %3 = alloca ptr, align 8
  %4 = alloca i32, align 4
  store ptr %0, ptr %3, align 8, !tbaa !10
  store i32 %1, ptr %4, align 4, !tbaa !8
  %5 = load ptr, ptr %3, align 8, !tbaa !10
  %6 = getelementptr inbounds nuw %struct.Cof_Man_t_, ptr %5, i32 0, i32 6
  %7 = load ptr, ptr %6, align 8, !tbaa !19
  %8 = load i32, ptr %4, align 4, !tbaa !8
  %9 = zext i32 %8 to i64
  %10 = getelementptr inbounds nuw i32, ptr %7, i64 %9
  ret ptr %10
}

; Function Attrs: inlinehint nounwind uwtable
define internal void @Vec_PtrFree(ptr noundef %0) #3 {
  %2 = alloca ptr, align 8
  store ptr %0, ptr %2, align 8, !tbaa !72
  %3 = load ptr, ptr %2, align 8, !tbaa !72
  %4 = getelementptr inbounds nuw %struct.Vec_Ptr_t_, ptr %3, i32 0, i32 2
  %5 = load ptr, ptr %4, align 8, !tbaa !77
  %6 = icmp ne ptr %5, null
  br i1 %6, label %7, label %13

7:                                                ; preds = %1
  %8 = load ptr, ptr %2, align 8, !tbaa !72
  %9 = getelementptr inbounds nuw %struct.Vec_Ptr_t_, ptr %8, i32 0, i32 2
  %10 = load ptr, ptr %9, align 8, !tbaa !77
  call void @free(ptr noundef %10) #13
  %11 = load ptr, ptr %2, align 8, !tbaa !72
  %12 = getelementptr inbounds nuw %struct.Vec_Ptr_t_, ptr %11, i32 0, i32 2
  store ptr null, ptr %12, align 8, !tbaa !77
  br label %14

13:                                               ; preds = %1
  br label %14

14:                                               ; preds = %13, %7
  %15 = load ptr, ptr %2, align 8, !tbaa !72
  %16 = icmp ne ptr %15, null
  br i1 %16, label %17, label %19

17:                                               ; preds = %14
  %18 = load ptr, ptr %2, align 8, !tbaa !72
  call void @free(ptr noundef %18) #13
  store ptr null, ptr %2, align 8, !tbaa !72
  br label %20

19:                                               ; preds = %14
  br label %20

20:                                               ; preds = %19, %17
  ret void
}

; Function Attrs: inlinehint nounwind uwtable
define internal ptr @Vec_PtrEntry(ptr noundef %0, i32 noundef %1) #3 {
  %3 = alloca ptr, align 8
  %4 = alloca i32, align 4
  store ptr %0, ptr %3, align 8, !tbaa !72
  store i32 %1, ptr %4, align 4, !tbaa !8
  %5 = load ptr, ptr %3, align 8, !tbaa !72
  %6 = getelementptr inbounds nuw %struct.Vec_Ptr_t_, ptr %5, i32 0, i32 2
  %7 = load ptr, ptr %6, align 8, !tbaa !77
  %8 = load i32, ptr %4, align 4, !tbaa !8
  %9 = sext i32 %8 to i64
  %10 = getelementptr inbounds ptr, ptr %7, i64 %9
  %11 = load ptr, ptr %10, align 8, !tbaa !75
  ret ptr %11
}

; Function Attrs: inlinehint nounwind uwtable
define internal i32 @Vec_PtrSize(ptr noundef %0) #3 {
  %2 = alloca ptr, align 8
  store ptr %0, ptr %2, align 8, !tbaa !72
  %3 = load ptr, ptr %2, align 8, !tbaa !72
  %4 = getelementptr inbounds nuw %struct.Vec_Ptr_t_, ptr %3, i32 0, i32 1
  %5 = load i32, ptr %4, align 4, !tbaa !73
  ret i32 %5
}

; Function Attrs: nounwind uwtable
define void @Cof_ManCleanValue(ptr noundef %0) #0 {
  %2 = alloca ptr, align 8
  %3 = alloca ptr, align 8
  %4 = alloca i32, align 4
  store ptr %0, ptr %2, align 8, !tbaa !10
  call void @llvm.lifetime.start.p0(i64 8, ptr %3) #13
  call void @llvm.lifetime.start.p0(i64 4, ptr %4) #13
  store i32 0, ptr %4, align 4, !tbaa !8
  br label %5

5:                                                ; preds = %21, %1
  %6 = load i32, ptr %4, align 4, !tbaa !8
  %7 = load ptr, ptr %2, align 8, !tbaa !10
  %8 = getelementptr inbounds nuw %struct.Cof_Man_t_, ptr %7, i32 0, i32 7
  %9 = load i32, ptr %8, align 8, !tbaa !18
  %10 = icmp slt i32 %6, %9
  br i1 %10, label %11, label %16

11:                                               ; preds = %5
  %12 = load ptr, ptr %2, align 8, !tbaa !10
  %13 = load i32, ptr %4, align 4, !tbaa !8
  %14 = call ptr @Cof_ManObj(ptr noundef %12, i32 noundef %13)
  store ptr %14, ptr %3, align 8, !tbaa !42
  %15 = icmp ne ptr %14, null
  br label %16

16:                                               ; preds = %11, %5
  %17 = phi i1 [ false, %5 ], [ %15, %11 ]
  br i1 %17, label %18, label %26

18:                                               ; preds = %16
  %19 = load ptr, ptr %3, align 8, !tbaa !42
  %20 = getelementptr inbounds nuw %struct.Cof_Obj_t_, ptr %19, i32 0, i32 2
  store i32 0, ptr %20, align 4, !tbaa !46
  br label %21

21:                                               ; preds = %18
  %22 = load ptr, ptr %3, align 8, !tbaa !42
  %23 = call i32 @Cof_ObjSize(ptr noundef %22)
  %24 = load i32, ptr %4, align 4, !tbaa !8
  %25 = add nsw i32 %24, %23
  store i32 %25, ptr %4, align 4, !tbaa !8
  br label %5, !llvm.loop !71

26:                                               ; preds = %16
  call void @llvm.lifetime.end.p0(i64 4, ptr %4) #13
  call void @llvm.lifetime.end.p0(i64 8, ptr %3) #13
  ret void
}

; Function Attrs: nounwind uwtable
define void @Cof_ManPrintHighFanout(ptr noundef %0, i32 noundef %1) #0 {
  %3 = alloca ptr, align 8
  %4 = alloca i32, align 4
  %5 = alloca ptr, align 8
  %6 = alloca ptr, align 8
  %7 = alloca i32, align 4
  store ptr %0, ptr %3, align 8, !tbaa !10
  store i32 %1, ptr %4, align 4, !tbaa !8
  call void @llvm.lifetime.start.p0(i64 8, ptr %5) #13
  call void @llvm.lifetime.start.p0(i64 8, ptr %6) #13
  call void @llvm.lifetime.start.p0(i64 4, ptr %7) #13
  %8 = load ptr, ptr %3, align 8, !tbaa !10
  %9 = load i32, ptr %4, align 4, !tbaa !8
  %10 = call ptr @Cof_ManCollectHighFanout(ptr noundef %8, i32 noundef %9)
  store ptr %10, ptr %5, align 8, !tbaa !72
  store i32 0, ptr %7, align 4, !tbaa !8
  br label %11

11:                                               ; preds = %25, %2
  %12 = load i32, ptr %7, align 4, !tbaa !8
  %13 = load ptr, ptr %5, align 8, !tbaa !72
  %14 = call i32 @Vec_PtrSize(ptr noundef %13)
  %15 = icmp slt i32 %12, %14
  br i1 %15, label %16, label %20

16:                                               ; preds = %11
  %17 = load ptr, ptr %5, align 8, !tbaa !72
  %18 = load i32, ptr %7, align 4, !tbaa !8
  %19 = call ptr @Vec_PtrEntry(ptr noundef %17, i32 noundef %18)
  store ptr %19, ptr %6, align 8, !tbaa !42
  br label %20

20:                                               ; preds = %16, %11
  %21 = phi i1 [ false, %11 ], [ true, %16 ]
  br i1 %21, label %22, label %28

22:                                               ; preds = %20
  %23 = load ptr, ptr %3, align 8, !tbaa !10
  %24 = load ptr, ptr %6, align 8, !tbaa !42
  call void @Cof_ManPrintHighFanoutOne(ptr noundef %23, ptr noundef %24)
  br label %25

25:                                               ; preds = %22
  %26 = load i32, ptr %7, align 4, !tbaa !8
  %27 = add nsw i32 %26, 1
  store i32 %27, ptr %7, align 4, !tbaa !8
  br label %11, !llvm.loop !85

28:                                               ; preds = %20
  %29 = load ptr, ptr %5, align 8, !tbaa !72
  call void @Vec_PtrFree(ptr noundef %29)
  call void @llvm.lifetime.end.p0(i64 4, ptr %7) #13
  call void @llvm.lifetime.end.p0(i64 8, ptr %6) #13
  call void @llvm.lifetime.end.p0(i64 8, ptr %5) #13
  ret void
}

; Function Attrs: inlinehint nounwind uwtable
define internal void @Cof_ManResetTravId(ptr noundef %0) #3 {
  %2 = alloca ptr, align 8
  store ptr %0, ptr %2, align 8, !tbaa !10
  %3 = load ptr, ptr %2, align 8, !tbaa !10
  call void @Cof_ManCleanValue(ptr noundef %3)
  %4 = load ptr, ptr %2, align 8, !tbaa !10
  %5 = getelementptr inbounds nuw %struct.Cof_Man_t_, ptr %4, i32 0, i32 5
  store i32 1, ptr %5, align 8, !tbaa !63
  ret void
}

; Function Attrs: inlinehint nounwind uwtable
define internal i64 @Abc_Clock() #3 {
  %1 = alloca i64, align 8
  %2 = alloca %struct.timespec, align 8
  %3 = alloca i32, align 4
  %4 = alloca i64, align 8
  call void @llvm.lifetime.start.p0(i64 16, ptr %2) #13
  %5 = call i32 @clock_gettime(i32 noundef 1, ptr noundef %2) #13
  %6 = icmp slt i32 %5, 0
  br i1 %6, label %7, label %8

7:                                                ; preds = %0
  store i64 -1, ptr %1, align 8
  store i32 1, ptr %3, align 4
  br label %19

8:                                                ; preds = %0
  call void @llvm.lifetime.start.p0(i64 8, ptr %4) #13
  %9 = getelementptr inbounds nuw %struct.timespec, ptr %2, i32 0, i32 0
  %10 = load i64, ptr %9, align 8, !tbaa !120
  %11 = mul nsw i64 %10, 1000000
  store i64 %11, ptr %4, align 8, !tbaa !90
  %12 = getelementptr inbounds nuw %struct.timespec, ptr %2, i32 0, i32 1
  %13 = load i64, ptr %12, align 8, !tbaa !122
  %14 = mul nsw i64 %13, 1000000
  %15 = sdiv i64 %14, 1000000000
  %16 = load i64, ptr %4, align 8, !tbaa !90
  %17 = add nsw i64 %16, %15
  store i64 %17, ptr %4, align 8, !tbaa !90
  %18 = load i64, ptr %4, align 8, !tbaa !90
  store i64 %18, ptr %1, align 8
  store i32 1, ptr %3, align 4
  call void @llvm.lifetime.end.p0(i64 8, ptr %4) #13
  br label %19

19:                                               ; preds = %8, %7
  call void @llvm.lifetime.end.p0(i64 16, ptr %2) #13
  %20 = load i64, ptr %1, align 8
  ret i64 %20
}

; Function Attrs: nounwind uwtable
define void @Gia_ManPrintFanio(ptr noundef %0, i32 noundef %1) #0 {
  %3 = alloca ptr, align 8
  %4 = alloca i32, align 4
  %5 = alloca ptr, align 8
  %6 = alloca i64, align 8
  store ptr %0, ptr %3, align 8, !tbaa !3
  store i32 %1, ptr %4, align 4, !tbaa !8
  call void @llvm.lifetime.start.p0(i64 8, ptr %5) #13
  call void @llvm.lifetime.start.p0(i64 8, ptr %6) #13
  %7 = call i64 @Abc_Clock()
  store i64 %7, ptr %6, align 8, !tbaa !90
  %8 = load ptr, ptr %3, align 8, !tbaa !3
  %9 = call ptr @Cof_ManCreateLogicSimple(ptr noundef %8)
  store ptr %9, ptr %5, align 8, !tbaa !10
  %10 = load ptr, ptr %3, align 8, !tbaa !3
  %11 = call i32 @Gia_ManLevelNum(ptr noundef %10)
  %12 = add nsw i32 1, %11
  %13 = load ptr, ptr %5, align 8, !tbaa !10
  %14 = getelementptr inbounds nuw %struct.Cof_Man_t_, ptr %13, i32 0, i32 9
  store i32 %12, ptr %14, align 8, !tbaa !81
  %15 = load ptr, ptr %5, align 8, !tbaa !10
  %16 = getelementptr inbounds nuw %struct.Cof_Man_t_, ptr %15, i32 0, i32 9
  %17 = load i32, ptr %16, align 8, !tbaa !81
  %18 = sext i32 %17 to i64
  %19 = call noalias ptr @calloc(i64 noundef %18, i64 noundef 4) #14
  %20 = load ptr, ptr %5, align 8, !tbaa !10
  %21 = getelementptr inbounds nuw %struct.Cof_Man_t_, ptr %20, i32 0, i32 8
  store ptr %19, ptr %21, align 8, !tbaa !61
  %22 = load ptr, ptr %5, align 8, !tbaa !10
  call void @Cof_ManPrintFanio(ptr noundef %22)
  %23 = load i32, ptr %4, align 4, !tbaa !8
  %24 = icmp sgt i32 %23, 0
  br i1 %24, label %25, label %44

25:                                               ; preds = %2
  %26 = load ptr, ptr %5, align 8, !tbaa !10
  call void @Cof_ManResetTravId(ptr noundef %26)
  %27 = load ptr, ptr %3, align 8, !tbaa !3
  call void @Gia_ManHashStart(ptr noundef %27)
  %28 = load ptr, ptr %5, align 8, !tbaa !10
  %29 = load i32, ptr %4, align 4, !tbaa !8
  call void @Cof_ManPrintHighFanout(ptr noundef %28, i32 noundef %29)
  %30 = load ptr, ptr %3, align 8, !tbaa !3
  call void @Gia_ManHashStop(ptr noundef %30)
  call void (i32, ptr, ...) @Abc_Print(i32 noundef 1, ptr noundef @.str.21, ptr noundef @.str.22)
  %31 = load ptr, ptr %5, align 8, !tbaa !10
  %32 = getelementptr inbounds nuw %struct.Cof_Man_t_, ptr %31, i32 0, i32 7
  %33 = load i32, ptr %32, align 8, !tbaa !18
  %34 = mul nsw i32 4, %33
  %35 = sitofp i32 %34 to double
  %36 = fmul double 1.000000e+00, %35
  %37 = fdiv double %36, 0x4130000000000000
  call void (i32, ptr, ...) @Abc_Print(i32 noundef 1, ptr noundef @.str.23, double noundef %37)
  call void (i32, ptr, ...) @Abc_Print(i32 noundef 1, ptr noundef @.str.21, ptr noundef @.str.24)
  %38 = call i64 @Abc_Clock()
  %39 = load i64, ptr %6, align 8, !tbaa !90
  %40 = sub nsw i64 %38, %39
  %41 = sitofp i64 %40 to double
  %42 = fmul double 1.000000e+00, %41
  %43 = fdiv double %42, 1.000000e+06
  call void (i32, ptr, ...) @Abc_Print(i32 noundef 1, ptr noundef @.str.25, double noundef %43)
  br label %44

44:                                               ; preds = %25, %2
  %45 = load ptr, ptr %5, align 8, !tbaa !10
  call void @Cof_ManStop(ptr noundef %45)
  call void @llvm.lifetime.end.p0(i64 8, ptr %6) #13
  call void @llvm.lifetime.end.p0(i64 8, ptr %5) #13
  ret void
}