; Function Attrs: nounwind uwtable
define void @Gia_ManPrintFanio(ptr noundef %0, i32 noundef %1) local_unnamed_addr #0 {
  %3 = alloca %struct.timespec, align 8
  %4 = alloca %struct.timespec, align 8
  call void @llvm.lifetime.start.p0(i64 16, ptr nonnull %4) #27
  %5 = call i32 @clock_gettime(i32 noundef 1, ptr noundef nonnull %4) #27
  %6 = icmp slt i32 %5, 0
  br i1 %6, label %Abc_Clock.exit, label %7

7:                                                ; preds = %2
  %8 = load i64, ptr %4, align 8, !tbaa !82
  %.neg17 = mul i64 %8, -1000000
  %9 = getelementptr inbounds nuw i8, ptr %4, i64 8
  %10 = load i64, ptr %9, align 8, !tbaa !84
  %.neg = sdiv i64 %10, -1000
  %.neg18 = add i64 %.neg, %.neg17
  br label %Abc_Clock.exit

Abc_Clock.exit:                                   ; preds = %2, %7
  %.0.i.neg = phi i64 [ %.neg18, %7 ], [ 1, %2 ]
  call void @llvm.lifetime.end.p0(i64 16, ptr nonnull %4) #27
  %11 = call ptr @Cof_ManCreateLogicSimple(ptr noundef %0)
  %12 = call i32 @Gia_ManLevelNum(ptr noundef %0) #27
  %13 = add nsw i32 %12, 1
  %14 = getelementptr inbounds nuw i8, ptr %11, i64 64
  store i32 %13, ptr %14, align 8, !tbaa !73
  %15 = sext i32 %13 to i64
  %16 = call noalias ptr @calloc(i64 noundef %15, i64 noundef 4) #25
  %17 = getelementptr inbounds nuw i8, ptr %11, i64 56
  store ptr %16, ptr %17, align 8, !tbaa !53
  call void @Cof_ManPrintFanio(ptr noundef %11)
  %18 = icmp sgt i32 %1, 0
  br i1 %18, label %19, label %56

19:                                               ; preds = %Abc_Clock.exit
  %20 = getelementptr inbounds nuw i8, ptr %11, i64 48
  %21 = load i32, ptr %20, align 8, !tbaa !37
  %22 = icmp sgt i32 %21, 0
  br i1 %22, label %.lr.ph.i.i, label %Cof_ManResetTravId.exit

.lr.ph.i.i:                                       ; preds = %19
  %23 = getelementptr i8, ptr %11, i64 40
  %.val.i.i = load ptr, ptr %23, align 8, !tbaa !38
  %.not.i.i = icmp eq ptr %.val.i.i, null
  br i1 %.not.i.i, label %Cof_ManResetTravId.exit, label %.lr.ph.split.i.i

.lr.ph.split.i.i:                                 ; preds = %.lr.ph.i.i, %.lr.ph.split.i.i
  %.08.i.i = phi i32 [ %30, %.lr.ph.split.i.i ], [ 0, %.lr.ph.i.i ]
  %24 = zext nneg i32 %.08.i.i to i64
  %25 = getelementptr inbounds nuw i32, ptr %.val.i.i, i64 %24
  %26 = getelementptr inbounds nuw i8, ptr %25, i64 8
  store i32 0, ptr %26, align 4, !tbaa !46
  %.val7.i.i = load i32, ptr %25, align 4
  %27 = lshr i32 %.val7.i.i, 4
  %28 = and i32 %27, 15
  %29 = lshr i32 %.val7.i.i, 8
  %narrow.i.i.i = add nuw nsw i32 %.08.i.i, 6
  %narrow2.i.i.i = add nuw nsw i32 %narrow.i.i.i, %29
  %30 = add nuw nsw i32 %narrow2.i.i.i, %28
  %31 = icmp slt i32 %30, %21
  br i1 %31, label %.lr.ph.split.i.i, label %Cof_ManResetTravId.exit, !llvm.loop !63

Cof_ManResetTravId.exit:                          ; preds = %.lr.ph.split.i.i, %19, %.lr.ph.i.i
  %32 = getelementptr inbounds nuw i8, ptr %11, i64 32
  store i32 1, ptr %32, align 8, !tbaa !54
  call void @Gia_ManHashStart(ptr noundef %0) #27
  %33 = call ptr @Cof_ManCollectHighFanout(ptr noundef %11, i32 noundef %1)
  %34 = getelementptr i8, ptr %33, i64 4
  %.val.i = load i32, ptr %34, align 4, !tbaa !64
  %35 = icmp sgt i32 %.val.i, 0
  %36 = getelementptr i8, ptr %33, i64 8
  %.val9.i = load ptr, ptr %36, align 8, !tbaa !67
  br i1 %35, label %.lr.ph.i, label %.critedge.i

.lr.ph.i:                                         ; preds = %Cof_ManResetTravId.exit
  %wide.trip.count.i = zext nneg i32 %.val.i to i64
  br label %37

37:                                               ; preds = %37, %.lr.ph.i
  %indvars.iv.i = phi i64 [ 0, %.lr.ph.i ], [ %indvars.iv.next.i, %37 ]
  %38 = getelementptr inbounds nuw ptr, ptr %.val9.i, i64 %indvars.iv.i
  %39 = load ptr, ptr %38, align 8, !tbaa !68
  call void @Cof_ManPrintHighFanoutOne(ptr noundef %11, ptr noundef %39)
  %indvars.iv.next.i = add nuw nsw i64 %indvars.iv.i, 1
  %exitcond.not.i = icmp eq i64 %indvars.iv.next.i, %wide.trip.count.i
  br i1 %exitcond.not.i, label %.critedge.thread.i, label %37, !llvm.loop !77

.critedge.i:                                      ; preds = %Cof_ManResetTravId.exit
  %.not.i.i14 = icmp eq ptr %.val9.i, null
  br i1 %.not.i.i14, label %Cof_ManPrintHighFanout.exit, label %.critedge.thread.i

.critedge.thread.i:                               ; preds = %37, %.critedge.i
  call void @free(ptr noundef nonnull %.val9.i) #27
  br label %Cof_ManPrintHighFanout.exit

Cof_ManPrintHighFanout.exit:                      ; preds = %.critedge.i, %.critedge.thread.i
  call void @free(ptr noundef nonnull %33) #27
  call void @Gia_ManHashStop(ptr noundef %0) #27
  call void (i32, ptr, ...) @Abc_Print(i32 poison, ptr noundef nonnull @.str.21, ptr noundef nonnull @.str.22)
  %40 = load i32, ptr %20, align 8, !tbaa !37
  %41 = shl nsw i32 %40, 2
  %42 = sitofp i32 %41 to double
  %43 = fmul double %42, 0x3EB0000000000000
  call void (i32, ptr, ...) @Abc_Print(i32 poison, ptr noundef nonnull @.str.23, double noundef %43)
  call void (i32, ptr, ...) @Abc_Print(i32 poison, ptr noundef nonnull @.str.21, ptr noundef nonnull @.str.24)
  call void @llvm.lifetime.start.p0(i64 16, ptr nonnull %3) #27
  %44 = call i32 @clock_gettime(i32 noundef 1, ptr noundef nonnull %3) #27
  %45 = icmp slt i32 %44, 0
  br i1 %45, label %Abc_Clock.exit16, label %46

46:                                               ; preds = %Cof_ManPrintHighFanout.exit
  %47 = load i64, ptr %3, align 8, !tbaa !82
  %48 = mul nsw i64 %47, 1000000
  %49 = getelementptr inbounds nuw i8, ptr %3, i64 8
  %50 = load i64, ptr %49, align 8, !tbaa !84
  %51 = sdiv i64 %50, 1000
  %52 = add nsw i64 %51, %48
  br label %Abc_Clock.exit16

Abc_Clock.exit16:                                 ; preds = %Cof_ManPrintHighFanout.exit, %46
  %.0.i15 = phi i64 [ %52, %46 ], [ -1, %Cof_ManPrintHighFanout.exit ]
  call void @llvm.lifetime.end.p0(i64 16, ptr nonnull %3) #27
  %53 = add i64 %.0.i15, %.0.i.neg
  %54 = sitofp i64 %53 to double
  %55 = fdiv double %54, 1.000000e+06
  call void (i32, ptr, ...) @Abc_Print(i32 poison, ptr noundef nonnull @.str.25, double noundef %55)
  br label %56

56:                                               ; preds = %Abc_Clock.exit16, %Abc_Clock.exit
  call void @Cof_ManStop(ptr noundef nonnull %11)
  ret void
}